; Function Attrs: mustprogress nofree norecurse nosync nounwind willreturn memory(read, argmem: readwrite, inaccessiblemem: none) uwtable
define noundef i32 @H5HF_get_id_len(ptr noundef readonly captures(none) %0, ptr noundef writeonly captures(none) %1) local_unnamed_addr #0 {
  %3 = load i8, ptr @H5HF_init_g, align 1, !tbaa !3, !range !7, !noundef !8
  %4 = trunc nuw i8 %3 to i1
  %5 = load i8, ptr @H5_libterm_g, align 1, !range !7
  %6 = trunc nuw i8 %5 to i1
  %7 = xor i1 %6, true
  %8 = select i1 %4, i1 true, i1 %7
  br i1 %8, label %9, label %14, !prof !9

9:                                                ; preds = %2
  %10 = load ptr, ptr %0, align 8, !tbaa !13
  %11 = getelementptr inbounds nuw i8, ptr %10, i64 248
  %12 = load i32, ptr %11, align 8, !tbaa !41
  %13 = zext i32 %12 to i64
  store i64 %13, ptr %1, align 8, !tbaa !11
  br label %14

14:                                               ; preds = %9, %2
  ret i32 0
}